target datalayout = "e-m:e-p270:32:32-p271:32:32-p272:64:64-i64:64-i128:128-f80:128-n8:16:32:64-S128"
target triple = "x86_64-pc-linux-gnu"

%class.Node_List = type <{ %class.Node_Array, i32, [4 x i8] }>
%class.Node_Array = type { ptr, i32, ptr }
%class.IdealLoopTree = type <{ ptr, ptr, ptr, ptr, ptr, ptr, i32, i32, %class.Node_List, i16, i8, [5 x i8], ptr, ptr, i8, [7 x i8] }>

; Function Attrs: mustprogress nounwind uwtable
define hidden noundef zeroext i1 @_ZN13IdealLoopTree16loop_predicationEP14PhaseIdealLoop(ptr noundef nonnull align 8 dereferenceable(113) %0, ptr noundef %1) #1 align 2 {
  %3 = alloca ptr, align 8
  %4 = alloca ptr, align 8
  %5 = alloca i8, align 1
  store ptr %0, ptr %3, align 8
  store ptr %1, ptr %4, align 8
  %6 = load ptr, ptr %3, align 8
  store i8 0, ptr %5, align 1
  %7 = getelementptr inbounds %class.IdealLoopTree, ptr %6, i32 0, i32 2
  %8 = load ptr, ptr %7, align 8
  %9 = icmp ne ptr %8, null
  br i1 %9, label %10, label %16

10:                                               ; preds = %2
  %11 = getelementptr inbounds %class.IdealLoopTree, ptr %6, i32 0, i32 2
  %12 = load ptr, ptr %11, align 8
  %13 = load ptr, ptr %4, align 8
  %14 = call noundef zeroext i1 @_ZN13IdealLoopTree16loop_predicationEP14PhaseIdealLoop(ptr noundef nonnull align 8 dereferenceable(113) %12, ptr noundef %13)
  %15 = zext i1 %14 to i8
  store i8 %15, ptr %5, align 1
  br label %16

16:                                               ; preds = %10, %2
  %17 = call noundef zeroext i1 @_ZN13IdealLoopTree26can_apply_loop_predicationEv(ptr noundef nonnull align 8 dereferenceable(113) %6)
  br i1 %17, label %18, label %28

18:                                               ; preds = %16
  %19 = load ptr, ptr %4, align 8
  %20 = call noundef zeroext i1 @_ZN14PhaseIdealLoop21loop_predication_implEP13IdealLoopTree(ptr noundef nonnull align 8 dereferenceable(237) %19, ptr noundef %6)
  %21 = zext i1 %20 to i32
  %22 = load i8, ptr %5, align 1
  %23 = trunc i8 %22 to i1
  %24 = zext i1 %23 to i32
  %25 = or i32 %24, %21
  %26 = icmp ne i32 %25, 0
  %27 = zext i1 %26 to i8
  store i8 %27, ptr %5, align 1
  br label %28

28:                                               ; preds = %18, %16
  %29 = getelementptr inbounds %class.IdealLoopTree, ptr %6, i32 0, i32 1
  %30 = load ptr, ptr %29, align 8
  %31 = icmp ne ptr %30, null
  br i1 %31, label %32, label %44

32:                                               ; preds = %28
  %33 = getelementptr inbounds %class.IdealLoopTree, ptr %6, i32 0, i32 1
  %34 = load ptr, ptr %33, align 8
  %35 = load ptr, ptr %4, align 8
  %36 = call noundef zeroext i1 @_ZN13IdealLoopTree16loop_predicationEP14PhaseIdealLoop(ptr noundef nonnull align 8 dereferenceable(113) %34, ptr noundef %35)
  %37 = zext i1 %36 to i32
  %38 = load i8, ptr %5, align 1
  %39 = trunc i8 %38 to i1
  %40 = zext i1 %39 to i32
  %41 = or i32 %40, %37
  %42 = icmp ne i32 %41, 0
  %43 = zext i1 %42 to i8
  store i8 %43, ptr %5, align 1
  br label %44

44:                                               ; preds = %32, %28
  %45 = load i8, ptr %5, align 1
  %46 = trunc i8 %45 to i1
  ret i1 %46
}