; Function Attrs: mustprogress nounwind uwtable
define hidden noundef zeroext i1 @_ZN13IdealLoopTree16loop_predicationEP14PhaseIdealLoop(ptr noundef nonnull align 8 dereferenceable(113) %0, ptr noundef %1) local_unnamed_addr #0 align 2 {
  br label %tailrecurse

tailrecurse:                                      ; preds = %12, %2
  %accumulator.tr = phi i1 [ false, %2 ], [ %15, %12 ]
  %.tr = phi ptr [ %0, %2 ], [ %14, %12 ]
  %3 = getelementptr inbounds i8, ptr %.tr, i64 16
  %4 = load ptr, ptr %3, align 8
  %.not = icmp eq ptr %4, null
  br i1 %.not, label %7, label %5

5:                                                ; preds = %tailrecurse
  %6 = tail call noundef zeroext i1 @_ZN13IdealLoopTree16loop_predicationEP14PhaseIdealLoop(ptr noundef nonnull align 8 dereferenceable(113) %4, ptr noundef %1)
  br label %7

7:                                                ; preds = %5, %tailrecurse
  %.0 = phi i1 [ %6, %5 ], [ false, %tailrecurse ]
  %8 = tail call noundef zeroext i1 @_ZN13IdealLoopTree26can_apply_loop_predicationEv(ptr noundef nonnull align 8 dereferenceable(113) %.tr)
  br i1 %8, label %9, label %12

9:                                                ; preds = %7
  %10 = tail call noundef zeroext i1 @_ZN14PhaseIdealLoop21loop_predication_implEP13IdealLoopTree(ptr noundef nonnull align 8 dereferenceable(237) %1, ptr noundef nonnull %.tr)
  %11 = or i1 %.0, %10
  br label %12

12:                                               ; preds = %9, %7
  %.1 = phi i1 [ %11, %9 ], [ %.0, %7 ]
  %13 = getelementptr inbounds i8, ptr %.tr, i64 8
  %14 = load ptr, ptr %13, align 8
  %.not8 = icmp eq ptr %14, null
  %15 = or i1 %accumulator.tr, %.1
  br i1 %.not8, label %16, label %tailrecurse

16:                                               ; preds = %12
  ret i1 %15
}